; Function Attrs: nounwind uwtable
define internal void @Abc_Print(i32 %0, ptr readnone captures(none) %1, ...) unnamed_addr #0 {
  %3 = alloca [1 x %struct.__va_list_tag], align 16
  %4 = load i32, ptr @enable_dbg_outs, align 4
  %.not = icmp eq i32 %4, 0
  br i1 %.not, label %17, label %5

5:                                                ; preds = %2
  %6 = tail call i32 (...) @Abc_FrameIsBridgeMode() #18
  call void @llvm.va_start.p0(ptr nonnull %3)
  %7 = call i32 (...) @Abc_FrameIsBridgeMode() #18
  %.not9 = icmp eq i32 %7, 0
  br i1 %.not9, label %14, label %8

8:                                                ; preds = %5
  %9 = call ptr @vnsprintf(ptr noundef nonnull @.str.18, ptr noundef nonnull %3) #18
  %10 = load ptr, ptr @stdout, align 8
  %11 = call i64 @strlen(ptr noundef nonnull dereferenceable(1) %9) #21
  %12 = trunc i64 %11 to i32
  %13 = call i32 @Gia_ManToBridgeText(ptr noundef %10, i32 noundef %12, ptr noundef nonnull %9) #18
  call void @free(ptr noundef %9) #18
  br label %16

14:                                               ; preds = %5
  %15 = call i32 @vprintf(ptr noundef nonnull @.str.18, ptr noundef nonnull %3) #18
  br label %16

16:                                               ; preds = %14, %8
  call void @llvm.va_end.p0(ptr nonnull %3)
  br label %17

17:                                               ; preds = %2, %16
  ret void
}